target datalayout = "e-m:e-p270:32:32-p271:32:32-p272:64:64-i64:64-i128:128-f80:128-n8:16:32:64-S128"
target triple = "x86_64-pc-linux-gnu"

@.str.3 = private unnamed_addr constant [2 x i8] c"\0A\00", align 1
@.str.4 = private unnamed_addr constant [31 x i8] c"    cover [options] [pattern]\0A\00", align 1
@.str.5 = private unnamed_addr constant [81 x i8] c"Print the code coverage counters collected using the cover() macro in the Yosys\0A\00", align 1
@.str.6 = private unnamed_addr constant [78 x i8] c"C++ code. This is useful to figure out what parts of Yosys are utilized by a\0A\00", align 1
@.str.7 = private unnamed_addr constant [13 x i8] c"test bench.\0A\00", align 1
@.str.8 = private unnamed_addr constant [8 x i8] c"    -q\0A\00", align 1
@.str.9 = private unnamed_addr constant [81 x i8] c"        Do not print output to the normal destination (console and/or log file)\0A\00", align 1
@.str.10 = private unnamed_addr constant [13 x i8] c"    -o file\0A\00", align 1
@.str.11 = private unnamed_addr constant [56 x i8] c"        Write output to this file, truncate if exists.\0A\00", align 1
@.str.12 = private unnamed_addr constant [13 x i8] c"    -a file\0A\00", align 1
@.str.13 = private unnamed_addr constant [54 x i8] c"        Write output to this file, append if exists.\0A\00", align 1
@.str.14 = private unnamed_addr constant [12 x i8] c"    -d dir\0A\00", align 1
@.str.15 = private unnamed_addr constant [74 x i8] c"        Write output to a newly created file in the specified directory.\0A\00", align 1
@.str.16 = private unnamed_addr constant [78 x i8] c"When one or more pattern (shell wildcards) are specified, then only counters\0A\00", align 1
@.str.17 = private unnamed_addr constant [44 x i8] c"matching at least one pattern are printed.\0A\00", align 1
@.str.18 = private unnamed_addr constant [81 x i8] c"It is also possible to instruct Yosys to print the coverage counters on program\0A\00", align 1
@.str.19 = private unnamed_addr constant [45 x i8] c"exit to a file using environment variables:\0A\00", align 1
@.str.20 = private unnamed_addr constant [47 x i8] c"    YOSYS_COVER_DIR=\22{dir-name}\22 yosys {args}\0A\00", align 1
@.str.21 = private unnamed_addr constant [71 x i8] c"        This will create a file (with an auto-generated name) in this\0A\00", align 1
@.str.22 = private unnamed_addr constant [58 x i8] c"        directory and write the coverage counters to it.\0A\00", align 1
@.str.23 = private unnamed_addr constant [49 x i8] c"    YOSYS_COVER_FILE=\22{file-name}\22 yosys {args}\0A\00", align 1
@.str.24 = private unnamed_addr constant [71 x i8] c"        This will append the coverage counters to the specified file.\0A\00", align 1
@.str.25 = private unnamed_addr constant [74 x i8] c"Hint: Use the following AWK command to consolidate Yosys coverage files:\0A\00", align 1
@.str.26 = private unnamed_addr constant [59 x i8] c"    gawk '{ p[$3] = $1; c[$3] += $2; } END { for (i in p)\0A\00", align 1
@.str.27 = private unnamed_addr constant [73 x i8] c"      printf \22%%-60s %%10d %%s\\n\22, p[i], c[i], i; }' {files} | sort -k3\0A\00", align 1
@.str.28 = private unnamed_addr constant [58 x i8] c"Coverage counters are only available in Yosys for Linux.\0A\00", align 1

; Function Attrs: mustprogress uwtable
define internal void @_ZN12_GLOBAL__N_19CoverPass4helpEv(ptr noundef nonnull align 8 dereferenceable(104) %0) unnamed_addr #4 align 2 {
  %2 = alloca ptr, align 8
  store ptr %0, ptr %2, align 8
  call void (ptr, ...) @_ZN5Yosys3logEPKcz(ptr noundef @.str.3)
  call void (ptr, ...) @_ZN5Yosys3logEPKcz(ptr noundef @.str.4)
  call void (ptr, ...) @_ZN5Yosys3logEPKcz(ptr noundef @.str.3)
  call void (ptr, ...) @_ZN5Yosys3logEPKcz(ptr noundef @.str.5)
  call void (ptr, ...) @_ZN5Yosys3logEPKcz(ptr noundef @.str.6)
  call void (ptr, ...) @_ZN5Yosys3logEPKcz(ptr noundef @.str.7)
  call void (ptr, ...) @_ZN5Yosys3logEPKcz(ptr noundef @.str.3)
  call void (ptr, ...) @_ZN5Yosys3logEPKcz(ptr noundef @.str.8)
  call void (ptr, ...) @_ZN5Yosys3logEPKcz(ptr noundef @.str.9)
  call void (ptr, ...) @_ZN5Yosys3logEPKcz(ptr noundef @.str.3)
  call void (ptr, ...) @_ZN5Yosys3logEPKcz(ptr noundef @.str.10)
  call void (ptr, ...) @_ZN5Yosys3logEPKcz(ptr noundef @.str.11)
  call void (ptr, ...) @_ZN5Yosys3logEPKcz(ptr noundef @.str.3)
  call void (ptr, ...) @_ZN5Yosys3logEPKcz(ptr noundef @.str.12)
  call void (ptr, ...) @_ZN5Yosys3logEPKcz(ptr noundef @.str.13)
  call void (ptr, ...) @_ZN5Yosys3logEPKcz(ptr noundef @.str.3)
  call void (ptr, ...) @_ZN5Yosys3logEPKcz(ptr noundef @.str.14)
  call void (ptr, ...) @_ZN5Yosys3logEPKcz(ptr noundef @.str.15)
  call void (ptr, ...) @_ZN5Yosys3logEPKcz(ptr noundef @.str.3)
  call void (ptr, ...) @_ZN5Yosys3logEPKcz(ptr noundef @.str.16)
  call void (ptr, ...) @_ZN5Yosys3logEPKcz(ptr noundef @.str.17)
  call void (ptr, ...) @_ZN5Yosys3logEPKcz(ptr noundef @.str.3)
  call void (ptr, ...) @_ZN5Yosys3logEPKcz(ptr noundef @.str.3)
  call void (ptr, ...) @_ZN5Yosys3logEPKcz(ptr noundef @.str.18)
  call void (ptr, ...) @_ZN5Yosys3logEPKcz(ptr noundef @.str.19)
  call void (ptr, ...) @_ZN5Yosys3logEPKcz(ptr noundef @.str.3)
  call void (ptr, ...) @_ZN5Yosys3logEPKcz(ptr noundef @.str.20)
  call void (ptr, ...) @_ZN5Yosys3logEPKcz(ptr noundef @.str.3)
  call void (ptr, ...) @_ZN5Yosys3logEPKcz(ptr noundef @.str.21)
  call void (ptr, ...) @_ZN5Yosys3logEPKcz(ptr noundef @.str.22)
  call void (ptr, ...) @_ZN5Yosys3logEPKcz(ptr noundef @.str.3)
  call void (ptr, ...) @_ZN5Yosys3logEPKcz(ptr noundef @.str.23)
  call void (ptr, ...) @_ZN5Yosys3logEPKcz(ptr noundef @.str.3)
  call void (ptr, ...) @_ZN5Yosys3logEPKcz(ptr noundef @.str.24)
  call void (ptr, ...) @_ZN5Yosys3logEPKcz(ptr noundef @.str.3)
  call void (ptr, ...) @_ZN5Yosys3logEPKcz(ptr noundef @.str.3)
  call void (ptr, ...) @_ZN5Yosys3logEPKcz(ptr noundef @.str.25)
  call void (ptr, ...) @_ZN5Yosys3logEPKcz(ptr noundef @.str.3)
  call void (ptr, ...) @_ZN5Yosys3logEPKcz(ptr noundef @.str.26)
  call void (ptr, ...) @_ZN5Yosys3logEPKcz(ptr noundef @.str.27)
  call void (ptr, ...) @_ZN5Yosys3logEPKcz(ptr noundef @.str.3)
  call void (ptr, ...) @_ZN5Yosys3logEPKcz(ptr noundef @.str.3)
  call void (ptr, ...) @_ZN5Yosys3logEPKcz(ptr noundef @.str.28)
  call void (ptr, ...) @_ZN5Yosys3logEPKcz(ptr noundef @.str.3)
  ret void
}